target datalayout = "e-m:e-p270:32:32-p271:32:32-p272:64:64-i64:64-i128:128-f80:128-n8:16:32:64-S128"
target triple = "x86_64-pc-linux-gnu"

%struct.AVMotionEstContext = type { ptr, ptr, i32, i32, i32, i32, i32, i32, i32, i32, i32, i32, i32, [2 x %struct.AVMotionEstPredictor], ptr }
%struct.AVMotionEstPredictor = type { [10 x [2 x i32]], i32 }

; Function Attrs: nounwind uwtable
define void @ff_me_init_context(ptr noundef %0, i32 noundef %1, i32 noundef %2, i32 noundef %3, i32 noundef %4, i32 noundef %5, i32 noundef %6, i32 noundef %7, i32 noundef %8) #0 {
  %10 = alloca ptr, align 8
  %11 = alloca i32, align 4
  %12 = alloca i32, align 4
  %13 = alloca i32, align 4
  %14 = alloca i32, align 4
  %15 = alloca i32, align 4
  %16 = alloca i32, align 4
  %17 = alloca i32, align 4
  %18 = alloca i32, align 4
  store ptr %0, ptr %10, align 8, !tbaa !4
  store i32 %1, ptr %11, align 4, !tbaa !9
  store i32 %2, ptr %12, align 4, !tbaa !9
  store i32 %3, ptr %13, align 4, !tbaa !9
  store i32 %4, ptr %14, align 4, !tbaa !9
  store i32 %5, ptr %15, align 4, !tbaa !9
  store i32 %6, ptr %16, align 4, !tbaa !9
  store i32 %7, ptr %17, align 4, !tbaa !9
  store i32 %8, ptr %18, align 4, !tbaa !9
  %19 = load i32, ptr %13, align 4, !tbaa !9
  %20 = load ptr, ptr %10, align 8, !tbaa !4
  %21 = getelementptr inbounds nuw %struct.AVMotionEstContext, ptr %20, i32 0, i32 5
  store i32 %19, ptr %21, align 4, !tbaa !11
  %22 = load i32, ptr %14, align 4, !tbaa !9
  %23 = load ptr, ptr %10, align 8, !tbaa !4
  %24 = getelementptr inbounds nuw %struct.AVMotionEstContext, ptr %23, i32 0, i32 6
  store i32 %22, ptr %24, align 8, !tbaa !14
  %25 = load i32, ptr %11, align 4, !tbaa !9
  %26 = load ptr, ptr %10, align 8, !tbaa !4
  %27 = getelementptr inbounds nuw %struct.AVMotionEstContext, ptr %26, i32 0, i32 3
  store i32 %25, ptr %27, align 4, !tbaa !15
  %28 = load i32, ptr %12, align 4, !tbaa !9
  %29 = load ptr, ptr %10, align 8, !tbaa !4
  %30 = getelementptr inbounds nuw %struct.AVMotionEstContext, ptr %29, i32 0, i32 4
  store i32 %28, ptr %30, align 8, !tbaa !16
  %31 = load ptr, ptr %10, align 8, !tbaa !4
  %32 = getelementptr inbounds nuw %struct.AVMotionEstContext, ptr %31, i32 0, i32 14
  store ptr @ff_me_cmp_sad, ptr %32, align 8, !tbaa !17
  %33 = load i32, ptr %15, align 4, !tbaa !9
  %34 = load ptr, ptr %10, align 8, !tbaa !4
  %35 = getelementptr inbounds nuw %struct.AVMotionEstContext, ptr %34, i32 0, i32 7
  store i32 %33, ptr %35, align 4, !tbaa !18
  %36 = load i32, ptr %16, align 4, !tbaa !9
  %37 = load ptr, ptr %10, align 8, !tbaa !4
  %38 = getelementptr inbounds nuw %struct.AVMotionEstContext, ptr %37, i32 0, i32 8
  store i32 %36, ptr %38, align 8, !tbaa !19
  %39 = load i32, ptr %17, align 4, !tbaa !9
  %40 = load ptr, ptr %10, align 8, !tbaa !4
  %41 = getelementptr inbounds nuw %struct.AVMotionEstContext, ptr %40, i32 0, i32 9
  store i32 %39, ptr %41, align 4, !tbaa !20
  %42 = load i32, ptr %18, align 4, !tbaa !9
  %43 = load ptr, ptr %10, align 8, !tbaa !4
  %44 = getelementptr inbounds nuw %struct.AVMotionEstContext, ptr %43, i32 0, i32 10
  store i32 %42, ptr %44, align 8, !tbaa !21
  ret void
}