; Function Attrs: mustprogress nofree norecurse nosync nounwind willreturn memory(argmem: write) uwtable
define void @ff_me_init_context(ptr noundef writeonly captures(none) initializes((20, 52), (232, 240)) %0, i32 noundef %1, i32 noundef %2, i32 noundef %3, i32 noundef %4, i32 noundef %5, i32 noundef %6, i32 noundef %7, i32 noundef %8) local_unnamed_addr #0 {
  %10 = getelementptr inbounds nuw i8, ptr %0, i64 28
  store i32 %3, ptr %10, align 4, !tbaa !4
  %11 = getelementptr inbounds nuw i8, ptr %0, i64 32
  store i32 %4, ptr %11, align 8, !tbaa !11
  %12 = getelementptr inbounds nuw i8, ptr %0, i64 20
  store i32 %1, ptr %12, align 4, !tbaa !12
  %13 = getelementptr inbounds nuw i8, ptr %0, i64 24
  store i32 %2, ptr %13, align 8, !tbaa !13
  %14 = getelementptr inbounds nuw i8, ptr %0, i64 232
  store ptr @ff_me_cmp_sad, ptr %14, align 8, !tbaa !14
  %15 = getelementptr inbounds nuw i8, ptr %0, i64 36
  store i32 %5, ptr %15, align 4, !tbaa !15
  %16 = getelementptr inbounds nuw i8, ptr %0, i64 40
  store i32 %6, ptr %16, align 8, !tbaa !16
  %17 = getelementptr inbounds nuw i8, ptr %0, i64 44
  store i32 %7, ptr %17, align 4, !tbaa !17
  %18 = getelementptr inbounds nuw i8, ptr %0, i64 48
  store i32 %8, ptr %18, align 8, !tbaa !18
  ret void
}